target datalayout = "e-m:e-p270:32:32-p271:32:32-p272:64:64-i64:64-i128:128-f80:128-n8:16:32:64-S128"
target triple = "x86_64-unknown-linux-gnu"

%struct.hdr_histogram = type { i64, i64, i32, i32, i32, i32, i64, i32, i32, i64, i64, i32, double, i32, i64, ptr }
%struct.hdr_histogram_bucket_config = type { i64, i64, i64, i64, i32, i32, i64, i32, i32, i32 }

; Function Attrs: nounwind uwtable
define dso_local void @hdr_init_preallocated(ptr noundef %h, ptr noundef %cfg) #0 {
entry:
  %h.addr = alloca ptr, align 8
  %cfg.addr = alloca ptr, align 8
  store ptr %h, ptr %h.addr, align 8
  store ptr %cfg, ptr %cfg.addr, align 8
  %0 = load ptr, ptr %cfg.addr, align 8
  %lowest_discernible_value = getelementptr inbounds %struct.hdr_histogram_bucket_config, ptr %0, i32 0, i32 0
  %1 = load i64, ptr %lowest_discernible_value, align 8
  %2 = load ptr, ptr %h.addr, align 8
  %lowest_discernible_value1 = getelementptr inbounds %struct.hdr_histogram, ptr %2, i32 0, i32 0
  store i64 %1, ptr %lowest_discernible_value1, align 8
  %3 = load ptr, ptr %cfg.addr, align 8
  %highest_trackable_value = getelementptr inbounds %struct.hdr_histogram_bucket_config, ptr %3, i32 0, i32 1
  %4 = load i64, ptr %highest_trackable_value, align 8
  %5 = load ptr, ptr %h.addr, align 8
  %highest_trackable_value2 = getelementptr inbounds %struct.hdr_histogram, ptr %5, i32 0, i32 1
  store i64 %4, ptr %highest_trackable_value2, align 8
  %6 = load ptr, ptr %cfg.addr, align 8
  %unit_magnitude = getelementptr inbounds %struct.hdr_histogram_bucket_config, ptr %6, i32 0, i32 2
  %7 = load i64, ptr %unit_magnitude, align 8
  %conv = trunc i64 %7 to i32
  %8 = load ptr, ptr %h.addr, align 8
  %unit_magnitude3 = getelementptr inbounds %struct.hdr_histogram, ptr %8, i32 0, i32 2
  store i32 %conv, ptr %unit_magnitude3, align 8
  %9 = load ptr, ptr %cfg.addr, align 8
  %significant_figures = getelementptr inbounds %struct.hdr_histogram_bucket_config, ptr %9, i32 0, i32 3
  %10 = load i64, ptr %significant_figures, align 8
  %conv4 = trunc i64 %10 to i32
  %11 = load ptr, ptr %h.addr, align 8
  %significant_figures5 = getelementptr inbounds %struct.hdr_histogram, ptr %11, i32 0, i32 3
  store i32 %conv4, ptr %significant_figures5, align 4
  %12 = load ptr, ptr %cfg.addr, align 8
  %sub_bucket_half_count_magnitude = getelementptr inbounds %struct.hdr_histogram_bucket_config, ptr %12, i32 0, i32 4
  %13 = load i32, ptr %sub_bucket_half_count_magnitude, align 8
  %14 = load ptr, ptr %h.addr, align 8
  %sub_bucket_half_count_magnitude6 = getelementptr inbounds %struct.hdr_histogram, ptr %14, i32 0, i32 4
  store i32 %13, ptr %sub_bucket_half_count_magnitude6, align 8
  %15 = load ptr, ptr %cfg.addr, align 8
  %sub_bucket_half_count = getelementptr inbounds %struct.hdr_histogram_bucket_config, ptr %15, i32 0, i32 5
  %16 = load i32, ptr %sub_bucket_half_count, align 4
  %17 = load ptr, ptr %h.addr, align 8
  %sub_bucket_half_count7 = getelementptr inbounds %struct.hdr_histogram, ptr %17, i32 0, i32 5
  store i32 %16, ptr %sub_bucket_half_count7, align 4
  %18 = load ptr, ptr %cfg.addr, align 8
  %sub_bucket_mask = getelementptr inbounds %struct.hdr_histogram_bucket_config, ptr %18, i32 0, i32 6
  %19 = load i64, ptr %sub_bucket_mask, align 8
  %20 = load ptr, ptr %h.addr, align 8
  %sub_bucket_mask8 = getelementptr inbounds %struct.hdr_histogram, ptr %20, i32 0, i32 6
  store i64 %19, ptr %sub_bucket_mask8, align 8
  %21 = load ptr, ptr %cfg.addr, align 8
  %sub_bucket_count = getelementptr inbounds %struct.hdr_histogram_bucket_config, ptr %21, i32 0, i32 7
  %22 = load i32, ptr %sub_bucket_count, align 8
  %23 = load ptr, ptr %h.addr, align 8
  %sub_bucket_count9 = getelementptr inbounds %struct.hdr_histogram, ptr %23, i32 0, i32 7
  store i32 %22, ptr %sub_bucket_count9, align 8
  %24 = load ptr, ptr %h.addr, align 8
  %min_value = getelementptr inbounds %struct.hdr_histogram, ptr %24, i32 0, i32 9
  store i64 9223372036854775807, ptr %min_value, align 8
  %25 = load ptr, ptr %h.addr, align 8
  %max_value = getelementptr inbounds %struct.hdr_histogram, ptr %25, i32 0, i32 10
  store i64 0, ptr %max_value, align 8
  %26 = load ptr, ptr %h.addr, align 8
  %normalizing_index_offset = getelementptr inbounds %struct.hdr_histogram, ptr %26, i32 0, i32 11
  store i32 0, ptr %normalizing_index_offset, align 8
  %27 = load ptr, ptr %h.addr, align 8
  %conversion_ratio = getelementptr inbounds %struct.hdr_histogram, ptr %27, i32 0, i32 12
  store double 1.000000e+00, ptr %conversion_ratio, align 8
  %28 = load ptr, ptr %cfg.addr, align 8
  %bucket_count = getelementptr inbounds %struct.hdr_histogram_bucket_config, ptr %28, i32 0, i32 8
  %29 = load i32, ptr %bucket_count, align 4
  %30 = load ptr, ptr %h.addr, align 8
  %bucket_count10 = getelementptr inbounds %struct.hdr_histogram, ptr %30, i32 0, i32 8
  store i32 %29, ptr %bucket_count10, align 4
  %31 = load ptr, ptr %cfg.addr, align 8
  %counts_len = getelementptr inbounds %struct.hdr_histogram_bucket_config, ptr %31, i32 0, i32 9
  %32 = load i32, ptr %counts_len, align 8
  %33 = load ptr, ptr %h.addr, align 8
  %counts_len11 = getelementptr inbounds %struct.hdr_histogram, ptr %33, i32 0, i32 13
  store i32 %32, ptr %counts_len11, align 8
  %34 = load ptr, ptr %h.addr, align 8
  %total_count = getelementptr inbounds %struct.hdr_histogram, ptr %34, i32 0, i32 14
  store i64 0, ptr %total_count, align 8
  ret void
}

; Function Attrs: nounwind uwtable
define dso_local i32 @hdr_init(i64 noundef %lowest_discernible_value, i64 noundef %highest_trackable_value, i32 noundef %significant_figures, ptr noundef %result) #0 {
entry:
  %retval = alloca i32, align 4
  %lowest_discernible_value.addr = alloca i64, align 8
  %highest_trackable_value.addr = alloca i64, align 8
  %significant_figures.addr = alloca i32, align 4
  %result.addr = alloca ptr, align 8
  %counts = alloca ptr, align 8
  %cfg = alloca %struct.hdr_histogram_bucket_config, align 8
  %histogram = alloca ptr, align 8
  %r = alloca i32, align 4
  store i64 %lowest_discernible_value, ptr %lowest_discernible_value.addr, align 8
  store i64 %highest_trackable_value, ptr %highest_trackable_value.addr, align 8
  store i32 %significant_figures, ptr %significant_figures.addr, align 4
  store ptr %result, ptr %result.addr, align 8
  %0 = load i64, ptr %lowest_discernible_value.addr, align 8
  %1 = load i64, ptr %highest_trackable_value.addr, align 8
  %2 = load i32, ptr %significant_figures.addr, align 4
  %call = call i32 @hdr_calculate_bucket_config(i64 noundef %0, i64 noundef %1, i32 noundef %2, ptr noundef %cfg)
  store i32 %call, ptr %r, align 4
  %3 = load i32, ptr %r, align 4
  %tobool = icmp ne i32 %3, 0
  br i1 %tobool, label %if.then, label %if.end

if.then:                                          ; preds = %entry
  %4 = load i32, ptr %r, align 4
  store i32 %4, ptr %retval, align 4
  br label %return

if.end:                                           ; preds = %entry
  %counts_len = getelementptr inbounds %struct.hdr_histogram_bucket_config, ptr %cfg, i32 0, i32 9
  %5 = load i32, ptr %counts_len, align 8
  %conv = sext i32 %5 to i64
  %call1 = call ptr @zcalloc_num(i64 noundef %conv, i64 noundef 8)
  store ptr %call1, ptr %counts, align 8
  %6 = load ptr, ptr %counts, align 8
  %tobool2 = icmp ne ptr %6, null
  br i1 %tobool2, label %if.end4, label %if.then3

if.then3:                                         ; preds = %if.end
  store i32 12, ptr %retval, align 4
  br label %return

if.end4:                                          ; preds = %if.end
  %call5 = call ptr @zcalloc_num(i64 noundef 1, i64 noundef 104)
  store ptr %call5, ptr %histogram, align 8
  %7 = load ptr, ptr %histogram, align 8
  %tobool6 = icmp ne ptr %7, null
  br i1 %tobool6, label %if.end8, label %if.then7

if.then7:                                         ; preds = %if.end4
  %8 = load ptr, ptr %counts, align 8
  call void @zfree(ptr noundef %8)
  store i32 12, ptr %retval, align 4
  br label %return

if.end8:                                          ; preds = %if.end4
  %9 = load ptr, ptr %counts, align 8
  %10 = load ptr, ptr %histogram, align 8
  %counts9 = getelementptr inbounds %struct.hdr_histogram, ptr %10, i32 0, i32 15
  store ptr %9, ptr %counts9, align 8
  %11 = load ptr, ptr %histogram, align 8
  call void @hdr_init_preallocated(ptr noundef %11, ptr noundef %cfg)
  %12 = load ptr, ptr %histogram, align 8
  %13 = load ptr, ptr %result.addr, align 8
  store ptr %12, ptr %13, align 8
  store i32 0, ptr %retval, align 4
  br label %return

return:                                           ; preds = %if.end8, %if.then7, %if.then3, %if.then
  %14 = load i32, ptr %retval, align 4
  ret i32 %14
}