; Function Attrs: nounwind uwtable
define dso_local noundef i32 @hdr_init(i64 noundef %lowest_discernible_value, i64 noundef %highest_trackable_value, i32 noundef %significant_figures, ptr nocapture noundef writeonly %result) local_unnamed_addr #6 {
entry:
  %cfg = alloca %struct.hdr_histogram_bucket_config, align 16
  %call = call i32 @hdr_calculate_bucket_config(i64 noundef %lowest_discernible_value, i64 noundef %highest_trackable_value, i32 noundef %significant_figures, ptr noundef nonnull %cfg), !range !6
  %tobool.not = icmp eq i32 %call, 0
  br i1 %tobool.not, label %if.end, label %return

if.end:                                           ; preds = %entry
  %counts_len = getelementptr inbounds i8, ptr %cfg, i64 56
  %0 = load i32, ptr %counts_len, align 8
  %conv = sext i32 %0 to i64
  %call1 = tail call ptr @zcalloc_num(i64 noundef %conv, i64 noundef 8) #21
  %tobool2.not = icmp eq ptr %call1, null
  br i1 %tobool2.not, label %return, label %if.end4

if.end4:                                          ; preds = %if.end
  %call5 = tail call ptr @zcalloc_num(i64 noundef 1, i64 noundef 104) #21
  %tobool6.not = icmp eq ptr %call5, null
  br i1 %tobool6.not, label %if.then7, label %if.end8

if.then7:                                         ; preds = %if.end4
  tail call void @zfree(ptr noundef nonnull %call1) #21
  br label %return

if.end8:                                          ; preds = %if.end4
  %counts9 = getelementptr inbounds i8, ptr %call5, i64 96
  store ptr %call1, ptr %counts9, align 8
  %1 = load <2 x i64>, ptr %cfg, align 16
  store <2 x i64> %1, ptr %call5, align 8
  %unit_magnitude.i = getelementptr inbounds i8, ptr %cfg, i64 16
  %unit_magnitude3.i = getelementptr inbounds i8, ptr %call5, i64 16
  %2 = load <2 x i64>, ptr %unit_magnitude.i, align 16
  %3 = trunc <2 x i64> %2 to <2 x i32>
  store <2 x i32> %3, ptr %unit_magnitude3.i, align 8
  %sub_bucket_half_count_magnitude.i = getelementptr inbounds i8, ptr %cfg, i64 32
  %sub_bucket_half_count_magnitude6.i = getelementptr inbounds i8, ptr %call5, i64 24
  %4 = load <2 x i32>, ptr %sub_bucket_half_count_magnitude.i, align 16
  store <2 x i32> %4, ptr %sub_bucket_half_count_magnitude6.i, align 8
  %sub_bucket_mask.i = getelementptr inbounds i8, ptr %cfg, i64 40
  %5 = load i64, ptr %sub_bucket_mask.i, align 8
  %sub_bucket_mask8.i = getelementptr inbounds i8, ptr %call5, i64 32
  store i64 %5, ptr %sub_bucket_mask8.i, align 8
  %sub_bucket_count.i = getelementptr inbounds i8, ptr %cfg, i64 48
  %sub_bucket_count9.i = getelementptr inbounds i8, ptr %call5, i64 40
  %min_value.i = getelementptr inbounds i8, ptr %call5, i64 48
  store i64 9223372036854775807, ptr %min_value.i, align 8
  %max_value.i = getelementptr inbounds i8, ptr %call5, i64 56
  store i64 0, ptr %max_value.i, align 8
  %normalizing_index_offset.i = getelementptr inbounds i8, ptr %call5, i64 64
  store i32 0, ptr %normalizing_index_offset.i, align 8
  %conversion_ratio.i = getelementptr inbounds i8, ptr %call5, i64 72
  store double 1.000000e+00, ptr %conversion_ratio.i, align 8
  %6 = load <2 x i32>, ptr %sub_bucket_count.i, align 16
  store <2 x i32> %6, ptr %sub_bucket_count9.i, align 8
  %counts_len11.i = getelementptr inbounds i8, ptr %call5, i64 80
  store i32 %0, ptr %counts_len11.i, align 8
  %total_count.i = getelementptr inbounds i8, ptr %call5, i64 88
  store i64 0, ptr %total_count.i, align 8
  store ptr %call5, ptr %result, align 8
  br label %return

return:                                           ; preds = %if.end, %entry, %if.end8, %if.then7
  %retval.0 = phi i32 [ 0, %if.end8 ], [ 12, %if.then7 ], [ %call, %entry ], [ 12, %if.end ]
  ret i32 %retval.0
}